	.file	"example.c"
	.text
	.globl	vec_add
	.type	vec_add, @function
vec_add:
.LFB5041:
	.cfi_startproc
	endbr64
	pushq	%rbp
	.cfi_def_cfa_offset 16
	.cfi_offset 6, -16
	movq	%rsp, %rbp
	.cfi_def_cfa_register 6
	movq	%rdi, -24(%rbp)
	movq	%rsi, -32(%rbp)
	movq	%rdx, -40(%rbp)
	movl	%ecx, -44(%rbp)
	movl	$0, -4(%rbp)
	jmp	.L2
.L3:
	movl	-4(%rbp), %eax
	cltq
	leaq	0(,%rax,4), %rdx
	movq	-24(%rbp), %rax
	addq	%rdx, %rax
	vmovss	(%rax), %xmm1
	movl	-4(%rbp), %eax
	cltq
	leaq	0(,%rax,4), %rdx
	movq	-32(%rbp), %rax
	addq	%rdx, %rax
	vmovss	(%rax), %xmm0
	movl	-4(%rbp), %eax
	cltq
	leaq	0(,%rax,4), %rdx
	movq	-40(%rbp), %rax
	addq	%rdx, %rax
	vaddss	%xmm0, %xmm1, %xmm0
	vmovss	%xmm0, (%rax)
	addl	$1, -4(%rbp)
.L2:
	movl	-4(%rbp), %eax
	cmpl	-44(%rbp), %eax
	jl	.L3
	nop
	nop
	popq	%rbp
	.cfi_def_cfa 7, 8
	ret
	.cfi_endproc
.LFE5041:
	.size	vec_add, .-vec_add
	.globl	vec_add_avx2
	.type	vec_add_avx2, @function
vec_add_avx2:
.LFB5042:
	.cfi_startproc
	endbr64
	pushq	%rbp
	.cfi_def_cfa_offset 16
	.cfi_offset 6, -16
	movq	%rsp, %rbp
	.cfi_def_cfa_register 6
	movq	%rdi, -8(%rbp)
	movq	%rsi, -16(%rbp)
	movq	%rdx, -24(%rbp)
	movl	%ecx, -28(%rbp)
#APP
# 21 "example.c" 1
	nop
	
# 0 "" 2
#NO_APP
	nop
	popq	%rbp
	.cfi_def_cfa 7, 8
	ret
	.cfi_endproc
.LFE5042:
	.size	vec_add_avx2, .-vec_add_avx2
	.ident	"GCC: (Ubuntu 13.2.0-23ubuntu4) 13.2.0"
	.section	.note.GNU-stack,"",@progbits
	.section	.note.gnu.property,"a"
	.align 8
	.long	1f - 0f
	.long	4f - 1f
	.long	5
0:
	.string	"GNU"
1:
	.align 8
	.long	0xc0000002
	.long	3f - 2f
2:
	.long	0x3
3:
	.align 8
4:
